; Function Attrs: nounwind uwtable
define void @ff_format_set_url(ptr noundef %0, ptr noundef %1) local_unnamed_addr #0 {
  %.not = icmp eq ptr %1, null
  br i1 %.not, label %3, label %4

3:                                                ; preds = %2
  tail call void (ptr, i32, ptr, ...) @av_log(ptr noundef null, i32 noundef 0, ptr noundef nonnull @.str, ptr noundef nonnull @.str.21, ptr noundef nonnull @.str.2, i32 noundef 863) #13
  tail call void @abort() #14
  unreachable

4:                                                ; preds = %2
  %5 = getelementptr inbounds nuw i8, ptr %0, i64 88
  tail call void @av_freep(ptr noundef nonnull %5) #13
  store ptr %1, ptr %5, align 8, !tbaa !153
  ret void
}